; Function Attrs: mustprogress uwtable
define hidden noundef zeroext i1 @_ZN4lean11is_not_zeroERKNS_5levelE(ptr noundef nonnull readonly align 8 captures(none) dereferenceable(8) %0) local_unnamed_addr #0 personality ptr @__gxx_personality_v0 {
  %2 = load ptr, ptr %0, align 8, !tbaa !3
  %3 = ptrtoint ptr %2 to i64
  %4 = and i64 %3, 1
  %.not.i.i6 = icmp eq i64 %4, 0
  br i1 %.not.i.i6, label %_ZN4lean4kindERKNS_5levelE.exit, label %_ZN4lean4kindERKNS_5levelE.exit.thread

_ZN4lean4kindERKNS_5levelE.exit:                  ; preds = %1, %tailrecurse.backedge
  %5 = phi ptr [ %13, %tailrecurse.backedge ], [ %2, %1 ]
  %.tr7 = phi ptr [ %.tr.be, %tailrecurse.backedge ], [ %0, %1 ]
  %6 = getelementptr i8, ptr %5, i64 4
  %.val.i.i = load i32, ptr %6, align 4
  %7 = lshr i32 %.val.i.i, 24
  %trunc = trunc nuw i32 %7 to i8
  switch i8 %trunc, label %16 [
    i8 0, label %_ZN4lean4kindERKNS_5levelE.exit.thread.loopexit
    i8 4, label %_ZN4lean4kindERKNS_5levelE.exit.thread.loopexit
    i8 5, label %_ZN4lean4kindERKNS_5levelE.exit.thread.loopexit
    i8 1, label %_ZN4lean4kindERKNS_5levelE.exit.thread
    i8 2, label %8
    i8 3, label %tailrecurse.backedge
  ]

8:                                                ; preds = %_ZN4lean4kindERKNS_5levelE.exit
  %9 = getelementptr inbounds nuw i8, ptr %5, i64 8
  %10 = tail call noundef zeroext i1 @_ZN4lean11is_not_zeroERKNS_5levelE(ptr noundef nonnull align 8 dereferenceable(8) %9)
  br i1 %10, label %_ZN4lean4kindERKNS_5levelE.exit.thread, label %11

11:                                               ; preds = %8
  %12 = load ptr, ptr %.tr7, align 8, !tbaa !3
  br label %tailrecurse.backedge

tailrecurse.backedge:                             ; preds = %_ZN4lean4kindERKNS_5levelE.exit, %11
  %.pn = phi ptr [ %12, %11 ], [ %5, %_ZN4lean4kindERKNS_5levelE.exit ]
  %.tr.be = getelementptr inbounds nuw i8, ptr %.pn, i64 16
  %13 = load ptr, ptr %.tr.be, align 8, !tbaa !3
  %14 = ptrtoint ptr %13 to i64
  %15 = and i64 %14, 1
  %.not.i.i = icmp eq i64 %15, 0
  br i1 %.not.i.i, label %_ZN4lean4kindERKNS_5levelE.exit, label %_ZN4lean4kindERKNS_5levelE.exit.thread

16:                                               ; preds = %_ZN4lean4kindERKNS_5levelE.exit
  %17 = tail call ptr @__cxa_allocate_exception(i64 40) #19
  %18 = getelementptr inbounds nuw i8, ptr %17, i64 8
  %19 = getelementptr inbounds nuw i8, ptr %17, i64 24
  store ptr %19, ptr %18, align 8, !tbaa !12
  %20 = getelementptr inbounds nuw i8, ptr %17, i64 16
  store i64 0, ptr %20, align 8, !tbaa !15
  store i8 0, ptr %19, align 1, !tbaa !18
  store ptr getelementptr inbounds nuw inrange(-16, 24) (i8, ptr @_ZTVN4lean19unreachable_reachedE, i64 16), ptr %17, align 8, !tbaa !19
  tail call void @__cxa_throw(ptr nonnull %17, ptr nonnull @_ZTIN4lean19unreachable_reachedE, ptr nonnull @_ZN4lean9throwableD2Ev) #20
  unreachable

_ZN4lean4kindERKNS_5levelE.exit.thread.loopexit:  ; preds = %_ZN4lean4kindERKNS_5levelE.exit, %_ZN4lean4kindERKNS_5levelE.exit, %_ZN4lean4kindERKNS_5levelE.exit
  br label %_ZN4lean4kindERKNS_5levelE.exit.thread

_ZN4lean4kindERKNS_5levelE.exit.thread:           ; preds = %8, %tailrecurse.backedge, %_ZN4lean4kindERKNS_5levelE.exit, %_ZN4lean4kindERKNS_5levelE.exit.thread.loopexit, %1
  %.0 = phi i1 [ false, %1 ], [ false, %_ZN4lean4kindERKNS_5levelE.exit.thread.loopexit ], [ true, %_ZN4lean4kindERKNS_5levelE.exit ], [ true, %8 ], [ false, %tailrecurse.backedge ]
  ret i1 %.0
}